target datalayout = "e-m:e-p270:32:32-p271:32:32-p272:64:64-i64:64-i128:128-f80:128-n8:16:32:64-S128"
target triple = "x86_64-pc-linux-gnu"

%struct.jpeg_decompress_struct = type { ptr, ptr, ptr, ptr, i32, i32, ptr, i32, i32, i32, i32, i32, i32, i32, double, i32, i32, i32, i32, i32, i32, i32, i32, i32, i32, i32, i32, i32, i32, i32, i32, i32, i32, ptr, i32, i32, i32, i32, i32, ptr, [4 x ptr], [4 x ptr], [4 x ptr], i32, ptr, i32, i32, [16 x i8], [16 x i8], [16 x i8], i32, i32, i8, i8, i8, i16, i16, i32, i8, i32, ptr, i32, i32, i32, i32, ptr, i32, [4 x ptr], i32, i32, i32, [10 x i32], i32, i32, i32, i32, i32, ptr, ptr, ptr, ptr, ptr, ptr, ptr, ptr, ptr, ptr, ptr }
%struct.jpeg_memory_mgr = type { ptr, ptr, ptr, ptr, ptr, ptr, ptr, ptr, ptr, ptr, ptr, i64, i64 }
%struct.my_post_controller = type { %struct.jpeg_d_post_controller, ptr, ptr, i32, i32, i32 }
%struct.jpeg_d_post_controller = type { ptr, ptr, ptr, ptr }
%struct.jpeg_upsampler = type { ptr, ptr, ptr, ptr, i32 }
%struct.jpeg_color_quantizer = type { ptr, ptr, ptr, ptr, ptr }

; Function Attrs: nounwind uwtable
define internal void @post_process_prepass(ptr noundef %0, ptr noundef %1, ptr noundef %2, i32 noundef %3, ptr noundef %4, ptr noundef %5, i32 noundef %6) #0 {
  %8 = alloca ptr, align 8
  %9 = alloca ptr, align 8
  %10 = alloca ptr, align 8
  %11 = alloca i32, align 4
  %12 = alloca ptr, align 8
  %13 = alloca ptr, align 8
  %14 = alloca i32, align 4
  %15 = alloca ptr, align 8
  %16 = alloca i32, align 4
  %17 = alloca i32, align 4
  store ptr %0, ptr %8, align 8, !tbaa !3
  store ptr %1, ptr %9, align 8, !tbaa !68
  store ptr %2, ptr %10, align 8, !tbaa !70
  store i32 %3, ptr %11, align 4, !tbaa !8
  store ptr %4, ptr %12, align 8, !tbaa !71
  store ptr %5, ptr %13, align 8, !tbaa !70
  store i32 %6, ptr %14, align 4, !tbaa !8
  call void @llvm.lifetime.start.p0(i64 8, ptr %15) #3
  %18 = load ptr, ptr %8, align 8, !tbaa !3
  %19 = getelementptr inbounds nuw %struct.jpeg_decompress_struct, ptr %18, i32 0, i32 80
  %20 = load ptr, ptr %19, align 8, !tbaa !46
  store ptr %20, ptr %15, align 8, !tbaa !45
  call void @llvm.lifetime.start.p0(i64 4, ptr %16) #3
  call void @llvm.lifetime.start.p0(i64 4, ptr %17) #3
  %21 = load ptr, ptr %15, align 8, !tbaa !45
  %22 = getelementptr inbounds nuw %struct.my_post_controller, ptr %21, i32 0, i32 5
  %23 = load i32, ptr %22, align 8, !tbaa !66
  %24 = icmp eq i32 %23, 0
  br i1 %24, label %25, label %44

25:                                               ; preds = %7
  %26 = load ptr, ptr %8, align 8, !tbaa !3
  %27 = getelementptr inbounds nuw %struct.jpeg_decompress_struct, ptr %26, i32 0, i32 1
  %28 = load ptr, ptr %27, align 8, !tbaa !42
  %29 = getelementptr inbounds nuw %struct.jpeg_memory_mgr, ptr %28, i32 0, i32 7
  %30 = load ptr, ptr %29, align 8, !tbaa !62
  %31 = load ptr, ptr %8, align 8, !tbaa !3
  %32 = load ptr, ptr %15, align 8, !tbaa !45
  %33 = getelementptr inbounds nuw %struct.my_post_controller, ptr %32, i32 0, i32 1
  %34 = load ptr, ptr %33, align 8, !tbaa !51
  %35 = load ptr, ptr %15, align 8, !tbaa !45
  %36 = getelementptr inbounds nuw %struct.my_post_controller, ptr %35, i32 0, i32 4
  %37 = load i32, ptr %36, align 4, !tbaa !67
  %38 = load ptr, ptr %15, align 8, !tbaa !45
  %39 = getelementptr inbounds nuw %struct.my_post_controller, ptr %38, i32 0, i32 3
  %40 = load i32, ptr %39, align 8, !tbaa !55
  %41 = call ptr %30(ptr noundef %31, ptr noundef %34, i32 noundef %37, i32 noundef %40, i32 noundef 1)
  %42 = load ptr, ptr %15, align 8, !tbaa !45
  %43 = getelementptr inbounds nuw %struct.my_post_controller, ptr %42, i32 0, i32 2
  store ptr %41, ptr %43, align 8, !tbaa !52
  br label %44

44:                                               ; preds = %25, %7
  %45 = load ptr, ptr %15, align 8, !tbaa !45
  %46 = getelementptr inbounds nuw %struct.my_post_controller, ptr %45, i32 0, i32 5
  %47 = load i32, ptr %46, align 8, !tbaa !66
  store i32 %47, ptr %16, align 4, !tbaa !8
  %48 = load ptr, ptr %8, align 8, !tbaa !3
  %49 = getelementptr inbounds nuw %struct.jpeg_decompress_struct, ptr %48, i32 0, i32 85
  %50 = load ptr, ptr %49, align 8, !tbaa !63
  %51 = getelementptr inbounds nuw %struct.jpeg_upsampler, ptr %50, i32 0, i32 1
  %52 = load ptr, ptr %51, align 8, !tbaa !64
  %53 = load ptr, ptr %8, align 8, !tbaa !3
  %54 = load ptr, ptr %9, align 8, !tbaa !68
  %55 = load ptr, ptr %10, align 8, !tbaa !70
  %56 = load i32, ptr %11, align 4, !tbaa !8
  %57 = load ptr, ptr %15, align 8, !tbaa !45
  %58 = getelementptr inbounds nuw %struct.my_post_controller, ptr %57, i32 0, i32 2
  %59 = load ptr, ptr %58, align 8, !tbaa !52
  %60 = load ptr, ptr %15, align 8, !tbaa !45
  %61 = getelementptr inbounds nuw %struct.my_post_controller, ptr %60, i32 0, i32 5
  %62 = load ptr, ptr %15, align 8, !tbaa !45
  %63 = getelementptr inbounds nuw %struct.my_post_controller, ptr %62, i32 0, i32 3
  %64 = load i32, ptr %63, align 8, !tbaa !55
  call void %52(ptr noundef %53, ptr noundef %54, ptr noundef %55, i32 noundef %56, ptr noundef %59, ptr noundef %61, i32 noundef %64)
  %65 = load ptr, ptr %15, align 8, !tbaa !45
  %66 = getelementptr inbounds nuw %struct.my_post_controller, ptr %65, i32 0, i32 5
  %67 = load i32, ptr %66, align 8, !tbaa !66
  %68 = load i32, ptr %16, align 4, !tbaa !8
  %69 = icmp ugt i32 %67, %68
  br i1 %69, label %70, label %93

70:                                               ; preds = %44
  %71 = load ptr, ptr %15, align 8, !tbaa !45
  %72 = getelementptr inbounds nuw %struct.my_post_controller, ptr %71, i32 0, i32 5
  %73 = load i32, ptr %72, align 8, !tbaa !66
  %74 = load i32, ptr %16, align 4, !tbaa !8
  %75 = sub i32 %73, %74
  store i32 %75, ptr %17, align 4, !tbaa !8
  %76 = load ptr, ptr %8, align 8, !tbaa !3
  %77 = getelementptr inbounds nuw %struct.jpeg_decompress_struct, ptr %76, i32 0, i32 87
  %78 = load ptr, ptr %77, align 8, !tbaa !72
  %79 = getelementptr inbounds nuw %struct.jpeg_color_quantizer, ptr %78, i32 0, i32 1
  %80 = load ptr, ptr %79, align 8, !tbaa !73
  %81 = load ptr, ptr %8, align 8, !tbaa !3
  %82 = load ptr, ptr %15, align 8, !tbaa !45
  %83 = getelementptr inbounds nuw %struct.my_post_controller, ptr %82, i32 0, i32 2
  %84 = load ptr, ptr %83, align 8, !tbaa !52
  %85 = load i32, ptr %16, align 4, !tbaa !8
  %86 = zext i32 %85 to i64
  %87 = getelementptr inbounds nuw ptr, ptr %84, i64 %86
  %88 = load i32, ptr %17, align 4, !tbaa !8
  call void %80(ptr noundef %81, ptr noundef %87, ptr noundef null, i32 noundef %88)
  %89 = load i32, ptr %17, align 4, !tbaa !8
  %90 = load ptr, ptr %13, align 8, !tbaa !70
  %91 = load i32, ptr %90, align 4, !tbaa !8
  %92 = add i32 %91, %89
  store i32 %92, ptr %90, align 4, !tbaa !8
  br label %93

93:                                               ; preds = %70, %44
  %94 = load ptr, ptr %15, align 8, !tbaa !45
  %95 = getelementptr inbounds nuw %struct.my_post_controller, ptr %94, i32 0, i32 5
  %96 = load i32, ptr %95, align 8, !tbaa !66
  %97 = load ptr, ptr %15, align 8, !tbaa !45
  %98 = getelementptr inbounds nuw %struct.my_post_controller, ptr %97, i32 0, i32 3
  %99 = load i32, ptr %98, align 8, !tbaa !55
  %100 = icmp uge i32 %96, %99
  br i1 %100, label %101, label %111

101:                                              ; preds = %93
  %102 = load ptr, ptr %15, align 8, !tbaa !45
  %103 = getelementptr inbounds nuw %struct.my_post_controller, ptr %102, i32 0, i32 3
  %104 = load i32, ptr %103, align 8, !tbaa !55
  %105 = load ptr, ptr %15, align 8, !tbaa !45
  %106 = getelementptr inbounds nuw %struct.my_post_controller, ptr %105, i32 0, i32 4
  %107 = load i32, ptr %106, align 4, !tbaa !67
  %108 = add i32 %107, %104
  store i32 %108, ptr %106, align 4, !tbaa !67
  %109 = load ptr, ptr %15, align 8, !tbaa !45
  %110 = getelementptr inbounds nuw %struct.my_post_controller, ptr %109, i32 0, i32 5
  store i32 0, ptr %110, align 8, !tbaa !66
  br label %111

111:                                              ; preds = %101, %93
  call void @llvm.lifetime.end.p0(i64 4, ptr %17) #3
  call void @llvm.lifetime.end.p0(i64 4, ptr %16) #3
  call void @llvm.lifetime.end.p0(i64 8, ptr %15) #3
  ret void
}